target datalayout = "e-m:e-p270:32:32-p271:32:32-p272:64:64-i64:64-i128:128-f80:128-n8:16:32:64-S128"
target triple = "x86_64-unknown-linux-gnu"

%"class.facebook::velox::HashStringAllocator::Header" = type { i32 }
%"struct.facebook::velox::HashStringAllocator::Position" = type { ptr, ptr }

; Function Attrs: mustprogress nounwind uwtable
define linkonce_odr noundef ptr @_ZN8facebook5velox19HashStringAllocator6Header3endEv(ptr noundef nonnull align 4 dereferenceable(4) %this) #2 comdat align 2 {
entry:
  %this.addr = alloca ptr, align 8
  store ptr %this, ptr %this.addr, align 8
  %this1 = load ptr, ptr %this.addr, align 8
  %call = call noundef ptr @_ZN8facebook5velox19HashStringAllocator6Header5beginEv(ptr noundef nonnull align 4 dereferenceable(4) %this1)
  %call2 = call noundef i32 @_ZNK8facebook5velox19HashStringAllocator6Header4sizeEv(ptr noundef nonnull align 4 dereferenceable(4) %this1)
  %idx.ext = sext i32 %call2 to i64
  %add.ptr = getelementptr inbounds i8, ptr %call, i64 %idx.ext
  ret ptr %add.ptr
}

; Function Attrs: mustprogress nounwind uwtable
define linkonce_odr noundef ptr @_ZN8facebook5velox19HashStringAllocator6Header5beginEv(ptr noundef nonnull align 4 dereferenceable(4) %this) #2 comdat align 2 {
entry:
  %this.addr = alloca ptr, align 8
  store ptr %this, ptr %this.addr, align 8
  %this1 = load ptr, ptr %this.addr, align 8
  %add.ptr = getelementptr inbounds %"class.facebook::velox::HashStringAllocator::Header", ptr %this1, i64 1
  ret ptr %add.ptr
}

; Function Attrs: mustprogress nounwind uwtable
define linkonce_odr noundef i32 @_ZNK8facebook5velox19HashStringAllocator6Header4sizeEv(ptr noundef nonnull align 4 dereferenceable(4) %this) #2 comdat align 2 {
entry:
  %this.addr = alloca ptr, align 8
  store ptr %this, ptr %this.addr, align 8
  %this1 = load ptr, ptr %this.addr, align 8
  %data_ = getelementptr inbounds %"class.facebook::velox::HashStringAllocator::Header", ptr %this1, i32 0, i32 0
  %0 = load i32, ptr %data_, align 4
  %and = and i32 %0, 536870911
  ret i32 %and
}

; Function Attrs: mustprogress uwtable
define linkonce_odr noundef ptr @_ZN8facebook5velox19HashStringAllocator6Header13nextContinuedEv(ptr noundef nonnull align 4 dereferenceable(4) %this) #0 comdat align 2 {
entry:
  %this.addr = alloca ptr, align 8
  store ptr %this, ptr %this.addr, align 8
  %this1 = load ptr, ptr %this.addr, align 8
  %call = call noundef ptr @_ZN8facebook5velox19HashStringAllocator6Header3endEv(ptr noundef nonnull align 4 dereferenceable(4) %this1)
  %add.ptr = getelementptr inbounds i8, ptr %call, i64 -8
  %0 = load ptr, ptr %add.ptr, align 8
  ret ptr %0
}

; Function Attrs: mustprogress nounwind uwtable
define linkonce_odr { ptr, ptr } @_ZN8facebook5velox19HashStringAllocator8Position4nullEv() #2 comdat align 2 {
entry:
  %retval = alloca %"struct.facebook::velox::HashStringAllocator::Position", align 8
  %header = getelementptr inbounds %"struct.facebook::velox::HashStringAllocator::Position", ptr %retval, i32 0, i32 0
  store ptr null, ptr %header, align 8
  %position = getelementptr inbounds %"struct.facebook::velox::HashStringAllocator::Position", ptr %retval, i32 0, i32 1
  store ptr null, ptr %position, align 8
  %0 = load { ptr, ptr }, ptr %retval, align 8
  ret { ptr, ptr } %0
}

; Function Attrs: mustprogress nounwind uwtable
define linkonce_odr noundef zeroext i1 @_ZNK8facebook5velox19HashStringAllocator6Header11isContinuedEv(ptr noundef nonnull align 4 dereferenceable(4) %this) #2 comdat align 2 {
entry:
  %this.addr = alloca ptr, align 8
  store ptr %this, ptr %this.addr, align 8
  %this1 = load ptr, ptr %this.addr, align 8
  %data_ = getelementptr inbounds %"class.facebook::velox::HashStringAllocator::Header", ptr %this1, i32 0, i32 0
  %0 = load i32, ptr %data_, align 4
  %and = and i32 %0, 1073741824
  %cmp = icmp ne i32 %and, 0
  ret i1 %cmp
}

; Function Attrs: mustprogress nounwind uwtable
define linkonce_odr { ptr, ptr } @_ZN8facebook5velox19HashStringAllocator8Position8atOffsetEPNS1_6HeaderEi(ptr noundef %header, i32 noundef %offset) #2 comdat align 2 {
entry:
  %retval = alloca %"struct.facebook::velox::HashStringAllocator::Position", align 8
  %header.addr = alloca ptr, align 8
  %offset.addr = alloca i32, align 4
  store ptr %header, ptr %header.addr, align 8
  store i32 %offset, ptr %offset.addr, align 4
  %header1 = getelementptr inbounds %"struct.facebook::velox::HashStringAllocator::Position", ptr %retval, i32 0, i32 0
  %0 = load ptr, ptr %header.addr, align 8
  store ptr %0, ptr %header1, align 8
  %position = getelementptr inbounds %"struct.facebook::velox::HashStringAllocator::Position", ptr %retval, i32 0, i32 1
  %1 = load ptr, ptr %header.addr, align 8
  %call = call noundef ptr @_ZN8facebook5velox19HashStringAllocator6Header5beginEv(ptr noundef nonnull align 4 dereferenceable(4) %1)
  %2 = load i32, ptr %offset.addr, align 4
  %idx.ext = sext i32 %2 to i64
  %add.ptr = getelementptr inbounds i8, ptr %call, i64 %idx.ext
  store ptr %add.ptr, ptr %position, align 8
  %3 = load { ptr, ptr }, ptr %retval, align 8
  ret { ptr, ptr } %3
}

; Function Attrs: mustprogress nounwind uwtable
define linkonce_odr noundef i32 @_ZNK8facebook5velox19HashStringAllocator6Header10usableSizeEv(ptr noundef nonnull align 4 dereferenceable(4) %this) #2 comdat align 2 {
entry:
  %this.addr = alloca ptr, align 8
  store ptr %this, ptr %this.addr, align 8
  %this1 = load ptr, ptr %this.addr, align 8
  %call = call noundef zeroext i1 @_ZNK8facebook5velox19HashStringAllocator6Header11isContinuedEv(ptr noundef nonnull align 4 dereferenceable(4) %this1)
  br i1 %call, label %cond.true, label %cond.false

cond.true:                                        ; preds = %entry
  %call2 = call noundef i32 @_ZNK8facebook5velox19HashStringAllocator6Header4sizeEv(ptr noundef nonnull align 4 dereferenceable(4) %this1)
  %sub = sub i32 %call2, 8
  br label %cond.end

cond.false:                                       ; preds = %entry
  %call3 = call noundef i32 @_ZNK8facebook5velox19HashStringAllocator6Header4sizeEv(ptr noundef nonnull align 4 dereferenceable(4) %this1)
  br label %cond.end

cond.end:                                         ; preds = %cond.false, %cond.true
  %cond = phi i32 [ %sub, %cond.true ], [ %call3, %cond.false ]
  ret i32 %cond
}

; Function Attrs: mustprogress uwtable
define { ptr, ptr } @_ZN8facebook5velox19HashStringAllocator4seekEPNS1_6HeaderEl(ptr noundef %header, i64 noundef %offset) #0 align 2 {
entry:
  %retval = alloca %"struct.facebook::velox::HashStringAllocator::Position", align 8
  %header.addr = alloca ptr, align 8
  %offset.addr = alloca i64, align 8
  %size = alloca i64, align 8
  %length = alloca i32, align 4
  store ptr %header, ptr %header.addr, align 8
  store i64 %offset, ptr %offset.addr, align 8
  store i64 0, ptr %size, align 8
  br label %for.cond

for.cond:                                         ; preds = %if.end6, %entry
  %0 = load ptr, ptr %header.addr, align 8
  %call = call noundef i32 @_ZNK8facebook5velox19HashStringAllocator6Header10usableSizeEv(ptr noundef nonnull align 4 dereferenceable(4) %0)
  store i32 %call, ptr %length, align 4
  %1 = load i64, ptr %offset.addr, align 8
  %2 = load i64, ptr %size, align 8
  %3 = load i32, ptr %length, align 4
  %conv = sext i32 %3 to i64
  %add = add nsw i64 %2, %conv
  %cmp = icmp sle i64 %1, %add
  br i1 %cmp, label %if.then, label %if.end

if.then:                                          ; preds = %for.cond
  %4 = load ptr, ptr %header.addr, align 8
  %5 = load i64, ptr %offset.addr, align 8
  %6 = load i64, ptr %size, align 8
  %sub = sub nsw i64 %5, %6
  %conv1 = trunc i64 %sub to i32
  %call2 = call { ptr, ptr } @_ZN8facebook5velox19HashStringAllocator8Position8atOffsetEPNS1_6HeaderEi(ptr noundef %4, i32 noundef %conv1)
  %7 = getelementptr inbounds { ptr, ptr }, ptr %retval, i32 0, i32 0
  %8 = extractvalue { ptr, ptr } %call2, 0
  store ptr %8, ptr %7, align 8
  %9 = getelementptr inbounds { ptr, ptr }, ptr %retval, i32 0, i32 1
  %10 = extractvalue { ptr, ptr } %call2, 1
  store ptr %10, ptr %9, align 8
  br label %return

if.end:                                           ; preds = %for.cond
  %11 = load ptr, ptr %header.addr, align 8
  %call3 = call noundef zeroext i1 @_ZNK8facebook5velox19HashStringAllocator6Header11isContinuedEv(ptr noundef nonnull align 4 dereferenceable(4) %11)
  br i1 %call3, label %if.end6, label %if.then4

if.then4:                                         ; preds = %if.end
  %call5 = call { ptr, ptr } @_ZN8facebook5velox19HashStringAllocator8Position4nullEv()
  %12 = getelementptr inbounds { ptr, ptr }, ptr %retval, i32 0, i32 0
  %13 = extractvalue { ptr, ptr } %call5, 0
  store ptr %13, ptr %12, align 8
  %14 = getelementptr inbounds { ptr, ptr }, ptr %retval, i32 0, i32 1
  %15 = extractvalue { ptr, ptr } %call5, 1
  store ptr %15, ptr %14, align 8
  br label %return

if.end6:                                          ; preds = %if.end
  %16 = load i32, ptr %length, align 4
  %conv7 = sext i32 %16 to i64
  %17 = load i64, ptr %size, align 8
  %add8 = add nsw i64 %17, %conv7
  store i64 %add8, ptr %size, align 8
  %18 = load ptr, ptr %header.addr, align 8
  %call9 = call noundef ptr @_ZN8facebook5velox19HashStringAllocator6Header13nextContinuedEv(ptr noundef nonnull align 4 dereferenceable(4) %18)
  store ptr %call9, ptr %header.addr, align 8
  br label %for.cond, !llvm.loop !14

return:                                           ; preds = %if.then4, %if.then
  %19 = load { ptr, ptr }, ptr %retval, align 8
  ret { ptr, ptr } %19
}