; Function Attrs: mustprogress nofree norecurse nosync nounwind willreturn memory(read, inaccessiblemem: none) uwtable
define { ptr, ptr } @_ZN8facebook5velox19HashStringAllocator4seekEPNS1_6HeaderEl(ptr noundef %header, i64 noundef %offset) local_unnamed_addr #11 align 2 {
entry:
  %0 = load i32, ptr %header, align 4
  %and.i.i13 = and i32 %0, 1073741824
  %cmp.i.not.i14 = icmp eq i32 %and.i.i13, 0
  %and.i1.i15 = and i32 %0, 536870911
  %sub.i16 = add nsw i32 %and.i1.i15, -8
  %cond.i17 = select i1 %cmp.i.not.i14, i32 %and.i1.i15, i32 %sub.i16
  %conv18 = sext i32 %cond.i17 to i64
  %cmp.not19 = icmp slt i64 %conv18, %offset
  br i1 %cmp.not19, label %if.end, label %if.then

if.then:                                          ; preds = %if.end6, %entry
  %header.addr.0.lcssa = phi ptr [ %header, %entry ], [ %1, %if.end6 ]
  %size.0.lcssa = phi i64 [ 0, %entry ], [ %add23, %if.end6 ]
  %sub = sub nsw i64 %offset, %size.0.lcssa
  %add.ptr.i.i = getelementptr inbounds i8, ptr %header.addr.0.lcssa, i64 4
  %sext = shl i64 %sub, 32
  %idx.ext.i = ashr exact i64 %sext, 32
  %add.ptr.i = getelementptr inbounds i8, ptr %add.ptr.i.i, i64 %idx.ext.i
  %.fca.0.insert.i = insertvalue { ptr, ptr } poison, ptr %header.addr.0.lcssa, 0
  %.fca.1.insert.i = insertvalue { ptr, ptr } %.fca.0.insert.i, ptr %add.ptr.i, 1
  br label %return

if.end:                                           ; preds = %entry, %if.end6
  %add23 = phi i64 [ %add, %if.end6 ], [ %conv18, %entry ]
  %and.i1.i22 = phi i32 [ %and.i1.i, %if.end6 ], [ %and.i1.i15, %entry ]
  %and.i.i21 = phi i32 [ %and.i.i, %if.end6 ], [ %and.i.i13, %entry ]
  %header.addr.020 = phi ptr [ %1, %if.end6 ], [ %header, %entry ]
  %cmp.i.not = icmp eq i32 %and.i.i21, 0
  br i1 %cmp.i.not, label %return, label %if.end6

if.end6:                                          ; preds = %if.end
  %add.ptr.i.i.i = getelementptr inbounds i8, ptr %header.addr.020, i64 4
  %idx.ext.i.i = zext nneg i32 %and.i1.i22 to i64
  %add.ptr.i.i9 = getelementptr inbounds i8, ptr %add.ptr.i.i.i, i64 %idx.ext.i.i
  %add.ptr.i10 = getelementptr inbounds i8, ptr %add.ptr.i.i9, i64 -8
  %1 = load ptr, ptr %add.ptr.i10, align 8
  %2 = load i32, ptr %1, align 4
  %and.i.i = and i32 %2, 1073741824
  %cmp.i.not.i = icmp eq i32 %and.i.i, 0
  %and.i1.i = and i32 %2, 536870911
  %sub.i = add nsw i32 %and.i1.i, -8
  %cond.i = select i1 %cmp.i.not.i, i32 %and.i1.i, i32 %sub.i
  %conv = sext i32 %cond.i to i64
  %add = add nsw i64 %add23, %conv
  %cmp.not = icmp slt i64 %add, %offset
  br i1 %cmp.not, label %if.end, label %if.then, !llvm.loop !34

return:                                           ; preds = %if.end, %if.then
  %call2.pn = phi { ptr, ptr } [ %.fca.1.insert.i, %if.then ], [ zeroinitializer, %if.end ]
  ret { ptr, ptr } %call2.pn
}